target datalayout = "e-m:e-p270:32:32-p271:32:32-p272:64:64-i64:64-i128:128-f80:128-n8:16:32:64-S128"
target triple = "x86_64-pc-linux-gnu"

%"struct.boost::urls::url_base::op_t" = type { ptr, ptr, ptr, ptr }
%"class.boost::core::basic_string_view" = type { ptr, i64 }
%"class.boost::urls::url_view_base" = type { [8 x i8], %"struct.boost::urls::detail::url_impl", ptr }
%"struct.boost::urls::detail::url_impl" = type <{ ptr, [8 x i64], [7 x i64], i64, i64, [16 x i8], i16, [2 x i8], i32, i16, i8, [5 x i8] }>

@.str.3 = private unnamed_addr constant [3 x i8] c"//\00", align 1
@_ZN5boost4urls8url_base4op_tD1Ev = unnamed_addr alias void (ptr), ptr @_ZN5boost4urls8url_base4op_tD2Ev
@_ZN5boost4urls8url_base4op_tC1ERS1_PNS_4core17basic_string_viewIcEES7_ = unnamed_addr alias void (ptr, ptr, ptr, ptr), ptr @_ZN5boost4urls8url_base4op_tC2ERS1_PNS_4core17basic_string_viewIcEES7_

; Function Attrs: noinline noreturn nounwind uwtable
define linkonce_odr hidden void @__clang_call_terminate(ptr noundef %0) #3 comdat {
  %2 = call ptr @__cxa_begin_catch(ptr %0) #9
  call void @_ZSt9terminatev() #21
  unreachable
}

; Function Attrs: mustprogress nounwind uwtable
define linkonce_odr hidden noundef i32 @_ZNSt11char_traitsIcE7compareEPKcS2_m(ptr noundef %0, ptr noundef %1, i64 noundef %2) #2 comdat align 2 {
  %4 = alloca i32, align 4
  %5 = alloca ptr, align 8
  %6 = alloca ptr, align 8
  %7 = alloca i64, align 8
  store ptr %0, ptr %5, align 8, !tbaa !7
  store ptr %1, ptr %6, align 8, !tbaa !7
  store i64 %2, ptr %7, align 8, !tbaa !21
  %8 = load i64, ptr %7, align 8, !tbaa !21
  %9 = icmp eq i64 %8, 0
  br i1 %9, label %10, label %11

10:                                               ; preds = %3
  store i32 0, ptr %4, align 4
  br label %16

11:                                               ; preds = %3
  %12 = load ptr, ptr %5, align 8, !tbaa !7
  %13 = load ptr, ptr %6, align 8, !tbaa !7
  %14 = load i64, ptr %7, align 8, !tbaa !21
  %15 = call i32 @memcmp(ptr noundef %12, ptr noundef %13, i64 noundef %14) #9
  store i32 %15, ptr %4, align 4
  br label %16

16:                                               ; preds = %11, %10
  %17 = load i32, ptr %4, align 4
  ret i32 %17
}

; Function Attrs: mustprogress nounwind uwtable
define linkonce_odr hidden noundef ptr @_ZNK5boost4core17basic_string_viewIcE4dataEv(ptr noundef nonnull align 8 dereferenceable(16) %0) #2 comdat align 2 {
  %2 = alloca ptr, align 8
  store ptr %0, ptr %2, align 8, !tbaa !7
  %3 = load ptr, ptr %2, align 8
  %4 = getelementptr inbounds nuw %"class.boost::core::basic_string_view", ptr %3, i32 0, i32 0
  %5 = load ptr, ptr %4, align 8, !tbaa !58
  ret ptr %5
}

; Function Attrs: mustprogress nounwind uwtable
define linkonce_odr hidden noundef i64 @_ZNK5boost4core17basic_string_viewIcE4sizeEv(ptr noundef nonnull align 8 dereferenceable(16) %0) #2 comdat align 2 {
  %2 = alloca ptr, align 8
  store ptr %0, ptr %2, align 8, !tbaa !7
  %3 = load ptr, ptr %2, align 8
  %4 = getelementptr inbounds nuw %"class.boost::core::basic_string_view", ptr %3, i32 0, i32 1
  %5 = load i64, ptr %4, align 8, !tbaa !60
  ret i64 %5
}

; Function Attrs: mustprogress nounwind uwtable
define linkonce_odr hidden noundef i64 @_ZNSt11char_traitsIcE6lengthEPKc(ptr noundef %0) #2 comdat align 2 {
  %2 = alloca ptr, align 8
  store ptr %0, ptr %2, align 8, !tbaa !7
  %3 = load ptr, ptr %2, align 8, !tbaa !7
  %4 = call i64 @strlen(ptr noundef %3) #9
  ret i64 %4
}

; Function Attrs: mustprogress nounwind uwtable
define linkonce_odr hidden noundef zeroext i1 @_ZNK5boost4core17basic_string_viewIcE11starts_withES2_(ptr noundef nonnull align 8 dereferenceable(16) %0, ptr %1, i64 %2) #2 comdat align 2 personality ptr @__gxx_personality_v0 {
  %4 = alloca %"class.boost::core::basic_string_view", align 8
  %5 = alloca ptr, align 8
  %6 = getelementptr inbounds nuw { ptr, i64 }, ptr %4, i32 0, i32 0
  store ptr %1, ptr %6, align 8
  %7 = getelementptr inbounds nuw { ptr, i64 }, ptr %4, i32 0, i32 1
  store i64 %2, ptr %7, align 8
  store ptr %0, ptr %5, align 8, !tbaa !7
  %8 = load ptr, ptr %5, align 8
  %9 = call noundef i64 @_ZNK5boost4core17basic_string_viewIcE4sizeEv(ptr noundef nonnull align 8 dereferenceable(16) %8) #9
  %10 = call noundef i64 @_ZNK5boost4core17basic_string_viewIcE4sizeEv(ptr noundef nonnull align 8 dereferenceable(16) %4) #9
  %11 = icmp uge i64 %9, %10
  br i1 %11, label %12, label %19

12:                                               ; preds = %3
  %13 = call noundef ptr @_ZNK5boost4core17basic_string_viewIcE4dataEv(ptr noundef nonnull align 8 dereferenceable(16) %8) #9
  %14 = call noundef ptr @_ZNK5boost4core17basic_string_viewIcE4dataEv(ptr noundef nonnull align 8 dereferenceable(16) %4) #9
  %15 = call noundef i64 @_ZNK5boost4core17basic_string_viewIcE4sizeEv(ptr noundef nonnull align 8 dereferenceable(16) %4) #9
  %16 = invoke noundef i32 @_ZNSt11char_traitsIcE7compareEPKcS2_m(ptr noundef %13, ptr noundef %14, i64 noundef %15)
          to label %17 unwind label %21

17:                                               ; preds = %12
  %18 = icmp eq i32 %16, 0
  br label %19

19:                                               ; preds = %17, %3
  %20 = phi i1 [ false, %3 ], [ %18, %17 ]
  ret i1 %20

21:                                               ; preds = %12
  %22 = landingpad { ptr, i32 }
          catch ptr null
  %23 = extractvalue { ptr, i32 } %22, 0
  call void @__clang_call_terminate(ptr %23) #21
  unreachable
}

; Function Attrs: mustprogress nounwind uwtable
define linkonce_odr hidden void @_ZN5boost4core17basic_string_viewIcEC2EPKc(ptr noundef nonnull align 8 dereferenceable(16) %0, ptr noundef %1) unnamed_addr #2 comdat align 2 {
  %3 = alloca ptr, align 8
  %4 = alloca ptr, align 8
  store ptr %0, ptr %3, align 8, !tbaa !7
  store ptr %1, ptr %4, align 8, !tbaa !7
  %5 = load ptr, ptr %3, align 8
  %6 = getelementptr inbounds nuw %"class.boost::core::basic_string_view", ptr %5, i32 0, i32 0
  %7 = load ptr, ptr %4, align 8, !tbaa !7
  store ptr %7, ptr %6, align 8, !tbaa !58
  %8 = getelementptr inbounds nuw %"class.boost::core::basic_string_view", ptr %5, i32 0, i32 1
  %9 = load ptr, ptr %4, align 8, !tbaa !7
  %10 = call noundef i64 @_ZNSt11char_traitsIcE6lengthEPKc(ptr noundef %9)
  store i64 %10, ptr %8, align 8, !tbaa !60
  ret void
}

; Function Attrs: mustprogress nounwind uwtable
define linkonce_odr hidden noundef zeroext i1 @_ZNK5boost4core17basic_string_viewIcE11starts_withEPKc(ptr noundef nonnull align 8 dereferenceable(16) %0, ptr noundef %1) #2 comdat align 2 {
  %3 = alloca ptr, align 8
  %4 = alloca ptr, align 8
  %5 = alloca %"class.boost::core::basic_string_view", align 8
  store ptr %0, ptr %3, align 8, !tbaa !7
  store ptr %1, ptr %4, align 8, !tbaa !7
  %6 = load ptr, ptr %3, align 8
  %7 = load ptr, ptr %4, align 8, !tbaa !7
  call void @_ZN5boost4core17basic_string_viewIcEC2EPKc(ptr noundef nonnull align 8 dereferenceable(16) %5, ptr noundef %7) #9
  %8 = getelementptr inbounds nuw { ptr, i64 }, ptr %5, i32 0, i32 0
  %9 = load ptr, ptr %8, align 8
  %10 = getelementptr inbounds nuw { ptr, i64 }, ptr %5, i32 0, i32 1
  %11 = load i64, ptr %10, align 8
  %12 = call noundef zeroext i1 @_ZNK5boost4core17basic_string_viewIcE11starts_withES2_(ptr noundef nonnull align 8 dereferenceable(16) %6, ptr %9, i64 %11) #9
  ret i1 %12
}

; Function Attrs: mustprogress nounwind uwtable
define linkonce_odr hidden noundef zeroext i1 @_ZNK5boost4urls13url_view_base13has_authorityEv(ptr noundef nonnull align 8 dereferenceable(192) %0) #2 comdat align 2 {
  %2 = alloca ptr, align 8
  store ptr %0, ptr %2, align 8, !tbaa !7
  %3 = load ptr, ptr %2, align 8
  %4 = getelementptr inbounds nuw %"class.boost::urls::url_view_base", ptr %3, i32 0, i32 2
  %5 = load ptr, ptr %4, align 8, !tbaa !33
  %6 = call noundef i64 @_ZNK5boost4urls6detail8url_impl3lenEi(ptr noundef nonnull align 8 dereferenceable(171) %5, i32 noundef 0) #9
  %7 = icmp ugt i64 %6, 0
  ret i1 %7
}

; Function Attrs: mustprogress uwtable
define noundef nonnull align 8 dereferenceable(216) ptr @_ZN5boost4urls8url_base16remove_authorityEv(ptr noundef nonnull align 8 dereferenceable(216) %0) #5 align 2 personality ptr @__gxx_personality_v0 {
  %2 = alloca ptr, align 8
  %3 = alloca ptr, align 8
  %4 = alloca %"struct.boost::urls::url_base::op_t", align 8
  %5 = alloca %"class.boost::core::basic_string_view", align 8
  %6 = alloca i8, align 1
  %7 = alloca ptr, align 8
  %8 = alloca ptr, align 8
  %9 = alloca i32, align 4
  store ptr %0, ptr %3, align 8, !tbaa !7
  %10 = load ptr, ptr %3, align 8
  %11 = getelementptr inbounds i8, ptr %10, i64 8
  %12 = call noundef zeroext i1 @_ZNK5boost4urls13url_view_base13has_authorityEv(ptr noundef nonnull align 8 dereferenceable(192) %11) #9
  br i1 %12, label %14, label %13

13:                                               ; preds = %1
  store ptr %10, ptr %2, align 8
  br label %57

14:                                               ; preds = %1
  call void @llvm.lifetime.start.p0(i64 32, ptr %4) #9
  call void @_ZN5boost4urls8url_base4op_tC1ERS1_PNS_4core17basic_string_viewIcEES7_(ptr noundef nonnull align 8 dereferenceable(32) %4, ptr noundef nonnull align 8 dereferenceable(216) %10, ptr noundef null, ptr noundef null) #9
  call void @llvm.lifetime.start.p0(i64 16, ptr %5) #9
  %15 = getelementptr inbounds i8, ptr %10, i64 8
  %16 = getelementptr inbounds nuw %"class.boost::urls::url_view_base", ptr %15, i32 0, i32 1
  %17 = call { ptr, i64 } @_ZNK5boost4urls6detail8url_impl3getEi(ptr noundef nonnull align 8 dereferenceable(171) %16, i32 noundef 4) #9
  %18 = getelementptr inbounds nuw { ptr, i64 }, ptr %5, i32 0, i32 0
  %19 = extractvalue { ptr, i64 } %17, 0
  store ptr %19, ptr %18, align 8
  %20 = getelementptr inbounds nuw { ptr, i64 }, ptr %5, i32 0, i32 1
  %21 = extractvalue { ptr, i64 } %17, 1
  store i64 %21, ptr %20, align 8
  call void @llvm.lifetime.start.p0(i64 1, ptr %6) #9
  %22 = call noundef zeroext i1 @_ZNK5boost4core17basic_string_viewIcE11starts_withEPKc(ptr noundef nonnull align 8 dereferenceable(16) %5, ptr noundef @.str.3) #9
  %23 = zext i1 %22 to i8
  store i8 %23, ptr %6, align 1, !tbaa !42
  %24 = load i8, ptr %6, align 1, !tbaa !42, !range !44, !noundef !45
  %25 = trunc i8 %24 to i1
  br i1 %25, label %26, label %45

26:                                               ; preds = %14
  call void @llvm.lifetime.start.p0(i64 8, ptr %7) #9
  %27 = invoke noundef ptr @_ZN5boost4urls8url_base11resize_implEiimRNS1_4op_tE(ptr noundef nonnull align 8 dereferenceable(216) %10, i32 noundef 0, i32 noundef 4, i64 noundef 2, ptr noundef nonnull align 8 dereferenceable(32) %4)
          to label %28 unwind label %41

28:                                               ; preds = %26
  store ptr %27, ptr %7, align 8, !tbaa !7
  %29 = load ptr, ptr %7, align 8, !tbaa !7
  %30 = getelementptr inbounds i8, ptr %29, i64 0
  store i8 47, ptr %30, align 1, !tbaa !32
  %31 = load ptr, ptr %7, align 8, !tbaa !7
  %32 = getelementptr inbounds i8, ptr %31, i64 1
  store i8 46, ptr %32, align 1, !tbaa !32
  %33 = getelementptr inbounds i8, ptr %10, i64 8
  %34 = getelementptr inbounds nuw %"class.boost::urls::url_view_base", ptr %33, i32 0, i32 1
  call void @_ZN5boost4urls6detail8url_impl5splitEim(ptr noundef nonnull align 8 dereferenceable(171) %34, i32 noundef 0, i64 noundef 0) #9
  %35 = getelementptr inbounds i8, ptr %10, i64 8
  %36 = getelementptr inbounds nuw %"class.boost::urls::url_view_base", ptr %35, i32 0, i32 1
  call void @_ZN5boost4urls6detail8url_impl5splitEim(ptr noundef nonnull align 8 dereferenceable(171) %36, i32 noundef 1, i64 noundef 0) #9
  %37 = getelementptr inbounds i8, ptr %10, i64 8
  %38 = getelementptr inbounds nuw %"class.boost::urls::url_view_base", ptr %37, i32 0, i32 1
  call void @_ZN5boost4urls6detail8url_impl5splitEim(ptr noundef nonnull align 8 dereferenceable(171) %38, i32 noundef 2, i64 noundef 0) #9
  %39 = getelementptr inbounds i8, ptr %10, i64 8
  %40 = getelementptr inbounds nuw %"class.boost::urls::url_view_base", ptr %39, i32 0, i32 1
  call void @_ZN5boost4urls6detail8url_impl5splitEim(ptr noundef nonnull align 8 dereferenceable(171) %40, i32 noundef 3, i64 noundef 0) #9
  call void @llvm.lifetime.end.p0(i64 8, ptr %7) #9
  br label %52

41:                                               ; preds = %26
  %42 = landingpad { ptr, i32 }
          cleanup
  %43 = extractvalue { ptr, i32 } %42, 0
  store ptr %43, ptr %8, align 8
  %44 = extractvalue { ptr, i32 } %42, 1
  store i32 %44, ptr %9, align 4
  call void @llvm.lifetime.end.p0(i64 8, ptr %7) #9
  br label %56

45:                                               ; preds = %14
  %46 = invoke noundef ptr @_ZN5boost4urls8url_base11resize_implEiimRNS1_4op_tE(ptr noundef nonnull align 8 dereferenceable(216) %10, i32 noundef 0, i32 noundef 4, i64 noundef 0, ptr noundef nonnull align 8 dereferenceable(32) %4)
          to label %47 unwind label %48

47:                                               ; preds = %45
  br label %52

48:                                               ; preds = %45
  %49 = landingpad { ptr, i32 }
          cleanup
  %50 = extractvalue { ptr, i32 } %49, 0
  store ptr %50, ptr %8, align 8
  %51 = extractvalue { ptr, i32 } %49, 1
  store i32 %51, ptr %9, align 4
  br label %56

52:                                               ; preds = %47, %28
  %53 = getelementptr inbounds i8, ptr %10, i64 8
  %54 = getelementptr inbounds nuw %"class.boost::urls::url_view_base", ptr %53, i32 0, i32 1
  %55 = getelementptr inbounds nuw %"struct.boost::urls::detail::url_impl", ptr %54, i32 0, i32 8
  store i32 0, ptr %55, align 4, !tbaa !63
  store ptr %10, ptr %2, align 8
  call void @llvm.lifetime.end.p0(i64 1, ptr %6) #9
  call void @llvm.lifetime.end.p0(i64 16, ptr %5) #9
  call void @_ZN5boost4urls8url_base4op_tD1Ev(ptr noundef nonnull align 8 dereferenceable(32) %4) #9
  call void @llvm.lifetime.end.p0(i64 32, ptr %4) #9
  br label %57

56:                                               ; preds = %48, %41
  call void @llvm.lifetime.end.p0(i64 1, ptr %6) #9
  call void @llvm.lifetime.end.p0(i64 16, ptr %5) #9
  call void @_ZN5boost4urls8url_base4op_tD1Ev(ptr noundef nonnull align 8 dereferenceable(32) %4) #9
  call void @llvm.lifetime.end.p0(i64 32, ptr %4) #9
  br label %59

57:                                               ; preds = %52, %13
  %58 = load ptr, ptr %2, align 8
  ret ptr %58

59:                                               ; preds = %56
  %60 = load ptr, ptr %8, align 8
  %61 = load i32, ptr %9, align 4
  %62 = insertvalue { ptr, i32 } poison, ptr %60, 0
  %63 = insertvalue { ptr, i32 } %62, i32 %61, 1
  resume { ptr, i32 } %63
}