; Function Attrs: mustprogress uwtable
define noundef nonnull align 8 dereferenceable(216) ptr @_ZN5boost4urls8url_base16remove_authorityEv(ptr noundef nonnull returned align 8 dereferenceable(216) %0) local_unnamed_addr #10 align 2 personality ptr @__gxx_personality_v0 {
  %2 = alloca %"struct.boost::urls::url_base::op_t", align 8
  %3 = getelementptr inbounds i8, ptr %0, i64 192
  %4 = load ptr, ptr %3, align 8, !tbaa !24
  %5 = tail call noundef i64 @_ZNK5boost4urls6detail8url_impl3lenEi(ptr noundef nonnull align 8 dereferenceable(171) %4, i32 noundef 0) #30
  %.not = icmp eq i64 %5, 0
  br i1 %.not, label %23, label %6

6:                                                ; preds = %1
  call void @llvm.lifetime.start.p0(i64 32, ptr nonnull %2) #30
  call void @_ZN5boost4urls8url_base4op_tC1ERS1_PNS_4core17basic_string_viewIcEES7_(ptr noundef nonnull align 8 dereferenceable(32) %2, ptr noundef nonnull align 8 dereferenceable(216) %0, ptr noundef null, ptr noundef null) #30
  %7 = getelementptr inbounds i8, ptr %0, i64 16
  %8 = call { ptr, i64 } @_ZNK5boost4urls6detail8url_impl3getEi(ptr noundef nonnull align 8 dereferenceable(171) %7, i32 noundef 4) #30
  %9 = extractvalue { ptr, i64 } %8, 1
  %.not.i.i = icmp ult i64 %9, 2
  br i1 %.not.i.i, label %_ZNK5boost4core17basic_string_viewIcE11starts_withEPKc.exit.thread9, label %_ZNK5boost4core17basic_string_viewIcE11starts_withEPKc.exit

_ZNK5boost4core17basic_string_viewIcE11starts_withEPKc.exit: ; preds = %6
  %10 = extractvalue { ptr, i64 } %8, 0
  %bcmp.i.i = call i32 @bcmp(ptr noundef nonnull dereferenceable(2) %10, ptr noundef nonnull dereferenceable(2) @.str.3, i64 2)
  %11 = icmp eq i32 %bcmp.i.i, 0
  br i1 %11, label %_ZNK5boost4core17basic_string_viewIcE11starts_withEPKc.exit.thread, label %_ZNK5boost4core17basic_string_viewIcE11starts_withEPKc.exit.thread9

_ZNK5boost4core17basic_string_viewIcE11starts_withEPKc.exit.thread: ; preds = %_ZNK5boost4core17basic_string_viewIcE11starts_withEPKc.exit
  %12 = invoke noundef ptr @_ZN5boost4urls8url_base11resize_implEiimRNS1_4op_tE(ptr noundef nonnull align 8 dereferenceable(216) %0, i32 noundef 0, i32 noundef 4, i64 noundef 2, ptr noundef nonnull align 8 dereferenceable(32) %2)
          to label %13 unwind label %15

13:                                               ; preds = %_ZNK5boost4core17basic_string_viewIcE11starts_withEPKc.exit.thread
  store i8 47, ptr %12, align 1, !tbaa !25
  %14 = getelementptr inbounds i8, ptr %12, i64 1
  store i8 46, ptr %14, align 1, !tbaa !25
  call void @_ZN5boost4urls6detail8url_impl5splitEim(ptr noundef nonnull align 8 dereferenceable(171) %7, i32 noundef 0, i64 noundef 0) #30
  call void @_ZN5boost4urls6detail8url_impl5splitEim(ptr noundef nonnull align 8 dereferenceable(171) %7, i32 noundef 1, i64 noundef 0) #30
  call void @_ZN5boost4urls6detail8url_impl5splitEim(ptr noundef nonnull align 8 dereferenceable(171) %7, i32 noundef 2, i64 noundef 0) #30
  call void @_ZN5boost4urls6detail8url_impl5splitEim(ptr noundef nonnull align 8 dereferenceable(171) %7, i32 noundef 3, i64 noundef 0) #30
  br label %20

15:                                               ; preds = %_ZNK5boost4core17basic_string_viewIcE11starts_withEPKc.exit.thread
  %16 = landingpad { ptr, i32 }
          cleanup
  br label %22

_ZNK5boost4core17basic_string_viewIcE11starts_withEPKc.exit.thread9: ; preds = %6, %_ZNK5boost4core17basic_string_viewIcE11starts_withEPKc.exit
  %17 = invoke noundef ptr @_ZN5boost4urls8url_base11resize_implEiimRNS1_4op_tE(ptr noundef nonnull align 8 dereferenceable(216) %0, i32 noundef 0, i32 noundef 4, i64 noundef 0, ptr noundef nonnull align 8 dereferenceable(32) %2)
          to label %20 unwind label %18

18:                                               ; preds = %_ZNK5boost4core17basic_string_viewIcE11starts_withEPKc.exit.thread9
  %19 = landingpad { ptr, i32 }
          cleanup
  br label %22

20:                                               ; preds = %_ZNK5boost4core17basic_string_viewIcE11starts_withEPKc.exit.thread9, %13
  %21 = getelementptr inbounds i8, ptr %0, i64 180
  store i32 0, ptr %21, align 4, !tbaa !73
  call void @_ZN5boost4urls8url_base4op_tD1Ev(ptr noundef nonnull align 8 dereferenceable(32) %2) #30
  call void @llvm.lifetime.end.p0(i64 32, ptr nonnull %2) #30
  br label %23

22:                                               ; preds = %18, %15
  %.pn = phi { ptr, i32 } [ %16, %15 ], [ %19, %18 ]
  call void @_ZN5boost4urls8url_base4op_tD1Ev(ptr noundef nonnull align 8 dereferenceable(32) %2) #30
  call void @llvm.lifetime.end.p0(i64 32, ptr nonnull %2) #30
  resume { ptr, i32 } %.pn

23:                                               ; preds = %1, %20
  ret ptr %0
}